; Function Attrs: nounwind uwtable
define dso_local ptr @parsejsonpath(ptr noundef readonly captures(none) %0, i32 noundef %1, ptr noundef %2) local_unnamed_addr #0 {
  %4 = alloca ptr, align 8
  %5 = alloca %struct.jsonpath_yy_extra_type, align 8
  call void @llvm.lifetime.start.p0(i64 8, ptr nonnull %4) #17
  call void @llvm.lifetime.start.p0(i64 16, ptr nonnull %5) #17
  %6 = tail call ptr @palloc(i64 noundef 152) #17
  %7 = icmp eq ptr %6, null
  br i1 %7, label %8, label %12

8:                                                ; preds = %3
  %9 = tail call ptr @__errno_location() #20
  store i32 12, ptr %9, align 4
  %10 = tail call zeroext i1 @errstart_cold(i32 noundef 21, ptr noundef null) #21
  tail call void @llvm.assume(i1 %10)
  %11 = tail call i32 (ptr, ...) @errmsg_internal(ptr noundef nonnull @.str.18) #17
  tail call void @errfinish(ptr noundef nonnull @.str.16, i32 noundef 535, ptr noundef nonnull @__func__.parsejsonpath) #17
  unreachable

12:                                               ; preds = %3
  %13 = getelementptr inbounds nuw i8, ptr %6, i64 8
  tail call void @llvm.memset.p0.i64(ptr noundef nonnull align 1 dereferenceable(144) %13, i8 0, i64 144, i1 false)
  store ptr %5, ptr %6, align 8
  %14 = icmp slt i32 %1, 1
  br i1 %14, label %15, label %18

15:                                               ; preds = %12
  %16 = call i64 @strlen(ptr noundef nonnull dereferenceable(1) %0) #19
  %17 = trunc i64 %16 to i32
  br label %18

18:                                               ; preds = %15, %12
  %.0 = phi i32 [ %17, %15 ], [ %1, %12 ]
  %19 = call ptr @jsonpath_yy_scan_bytes(ptr noundef %0, i32 noundef %.0, ptr noundef nonnull %6)
  %20 = call i32 @jsonpath_yyparse(ptr noundef nonnull %4, ptr noundef %2, ptr noundef nonnull %6) #17
  %.not6 = icmp eq i32 %20, 0
  br i1 %.not6, label %22, label %21

21:                                               ; preds = %18
  call void @jsonpath_yyerror(ptr poison, ptr noundef %2, ptr noundef nonnull %6, ptr noundef nonnull @.str.19)
  br label %22

22:                                               ; preds = %21, %18
  %23 = call i32 @jsonpath_yylex_destroy(ptr noundef nonnull %6)
  %24 = load ptr, ptr %4, align 8
  call void @llvm.lifetime.end.p0(i64 16, ptr nonnull %5) #17
  call void @llvm.lifetime.end.p0(i64 8, ptr nonnull %4) #17
  ret ptr %24
}